target datalayout = "e-m:e-p270:32:32-p271:32:32-p272:64:64-i64:64-i128:128-f80:128-n8:16:32:64-S128"
target triple = "x86_64-pc-linux-gnu"

%struct.X509_algor_st = type { ptr, ptr }
%struct.asn1_string_st = type { i32, i32, ptr, i64 }
%struct.ocsp_responder_id_st = type { i32, %union.anon }
%union.anon = type { ptr }
%struct.x509_st = type { %struct.x509_cinf_st, %struct.X509_algor_st, %struct.asn1_string_st, %struct.x509_sig_info_st, %struct.CRYPTO_REF_COUNT, %struct.crypto_ex_data_st, i64, i64, i32, i32, i32, i32, ptr, ptr, ptr, ptr, ptr, ptr, ptr, ptr, [20 x i8], ptr, ptr, i32, ptr, ptr, ptr }
%struct.x509_cinf_st = type { ptr, %struct.asn1_string_st, %struct.X509_algor_st, ptr, %struct.X509_val_st, ptr, ptr, ptr, ptr, ptr, %struct.ASN1_ENCODING_st }
%struct.X509_val_st = type { ptr, ptr }
%struct.ASN1_ENCODING_st = type { ptr, i64, i32 }
%struct.x509_sig_info_st = type { i32, i32, i32, i32 }
%struct.CRYPTO_REF_COUNT = type { i32 }
%struct.crypto_ex_data_st = type { ptr, ptr }

@.str.1 = private unnamed_addr constant [5 x i8] c"SHA1\00", align 1

; Function Attrs: nounwind uwtable
define i32 @OCSP_RESPID_set_by_key_ex(ptr noundef %0, ptr noundef %1, ptr noundef %2, ptr noundef %3) #0 {
  %5 = alloca i32, align 4
  %6 = alloca ptr, align 8
  %7 = alloca ptr, align 8
  %8 = alloca ptr, align 8
  %9 = alloca ptr, align 8
  %10 = alloca ptr, align 8
  %11 = alloca [20 x i8], align 16
  %12 = alloca ptr, align 8
  %13 = alloca i32, align 4
  %14 = alloca i32, align 4
  store ptr %0, ptr %6, align 8, !tbaa !80
  store ptr %1, ptr %7, align 8, !tbaa !71
  store ptr %2, ptr %8, align 8, !tbaa !110
  store ptr %3, ptr %9, align 8, !tbaa !111
  call void @llvm.lifetime.start.p0(i64 8, ptr %10) #5
  store ptr null, ptr %10, align 8, !tbaa !38
  call void @llvm.lifetime.start.p0(i64 20, ptr %11) #5
  call void @llvm.lifetime.start.p0(i64 8, ptr %12) #5
  %15 = load ptr, ptr %8, align 8, !tbaa !110
  %16 = load ptr, ptr %9, align 8, !tbaa !111
  %17 = call ptr @EVP_MD_fetch(ptr noundef %15, ptr noundef @.str.1, ptr noundef %16)
  store ptr %17, ptr %12, align 8, !tbaa !106
  call void @llvm.lifetime.start.p0(i64 4, ptr %13) #5
  store i32 0, ptr %13, align 4, !tbaa !17
  %18 = load ptr, ptr %12, align 8, !tbaa !106
  %19 = icmp eq ptr %18, null
  br i1 %19, label %20, label %21

20:                                               ; preds = %4
  store i32 0, ptr %5, align 4
  store i32 1, ptr %14, align 4
  br label %49

21:                                               ; preds = %4
  %22 = load ptr, ptr %7, align 8, !tbaa !71
  %23 = load ptr, ptr %12, align 8, !tbaa !106
  %24 = getelementptr inbounds [20 x i8], ptr %11, i64 0, i64 0
  %25 = call i32 @X509_pubkey_digest(ptr noundef %22, ptr noundef %23, ptr noundef %24, ptr noundef null)
  %26 = icmp ne i32 %25, 0
  br i1 %26, label %28, label %27

27:                                               ; preds = %21
  br label %46

28:                                               ; preds = %21
  %29 = call ptr @ASN1_OCTET_STRING_new()
  store ptr %29, ptr %10, align 8, !tbaa !38
  %30 = load ptr, ptr %10, align 8, !tbaa !38
  %31 = icmp eq ptr %30, null
  br i1 %31, label %32, label %33

32:                                               ; preds = %28
  br label %46

33:                                               ; preds = %28
  %34 = load ptr, ptr %10, align 8, !tbaa !38
  %35 = getelementptr inbounds [20 x i8], ptr %11, i64 0, i64 0
  %36 = call i32 @ASN1_OCTET_STRING_set(ptr noundef %34, ptr noundef %35, i32 noundef 20)
  %37 = icmp ne i32 %36, 0
  br i1 %37, label %40, label %38

38:                                               ; preds = %33
  %39 = load ptr, ptr %10, align 8, !tbaa !38
  call void @ASN1_OCTET_STRING_free(ptr noundef %39)
  br label %46

40:                                               ; preds = %33
  %41 = load ptr, ptr %6, align 8, !tbaa !80
  %42 = getelementptr inbounds nuw %struct.ocsp_responder_id_st, ptr %41, i32 0, i32 0
  store i32 1, ptr %42, align 8, !tbaa !105
  %43 = load ptr, ptr %10, align 8, !tbaa !38
  %44 = load ptr, ptr %6, align 8, !tbaa !80
  %45 = getelementptr inbounds nuw %struct.ocsp_responder_id_st, ptr %44, i32 0, i32 1
  store ptr %43, ptr %45, align 8, !tbaa !67
  store i32 1, ptr %13, align 4, !tbaa !17
  br label %46

46:                                               ; preds = %40, %38, %32, %27
  %47 = load ptr, ptr %12, align 8, !tbaa !106
  call void @EVP_MD_free(ptr noundef %47)
  %48 = load i32, ptr %13, align 4, !tbaa !17
  store i32 %48, ptr %5, align 4
  store i32 1, ptr %14, align 4
  br label %49

49:                                               ; preds = %46, %20
  call void @llvm.lifetime.end.p0(i64 4, ptr %13) #5
  call void @llvm.lifetime.end.p0(i64 8, ptr %12) #5
  call void @llvm.lifetime.end.p0(i64 20, ptr %11) #5
  call void @llvm.lifetime.end.p0(i64 8, ptr %10) #5
  %50 = load i32, ptr %5, align 4
  ret i32 %50
}

; Function Attrs: nounwind uwtable
define i32 @OCSP_RESPID_set_by_key(ptr noundef %0, ptr noundef %1) #0 {
  %3 = alloca i32, align 4
  %4 = alloca ptr, align 8
  %5 = alloca ptr, align 8
  store ptr %0, ptr %4, align 8, !tbaa !80
  store ptr %1, ptr %5, align 8, !tbaa !71
  %6 = load ptr, ptr %5, align 8, !tbaa !71
  %7 = icmp eq ptr %6, null
  br i1 %7, label %8, label %9

8:                                                ; preds = %2
  store i32 0, ptr %3, align 4
  br label %19

9:                                                ; preds = %2
  %10 = load ptr, ptr %4, align 8, !tbaa !80
  %11 = load ptr, ptr %5, align 8, !tbaa !71
  %12 = load ptr, ptr %5, align 8, !tbaa !71
  %13 = getelementptr inbounds nuw %struct.x509_st, ptr %12, i32 0, i32 25
  %14 = load ptr, ptr %13, align 8, !tbaa !84
  %15 = load ptr, ptr %5, align 8, !tbaa !71
  %16 = getelementptr inbounds nuw %struct.x509_st, ptr %15, i32 0, i32 26
  %17 = load ptr, ptr %16, align 8, !tbaa !104
  %18 = call i32 @OCSP_RESPID_set_by_key_ex(ptr noundef %10, ptr noundef %11, ptr noundef %14, ptr noundef %17)
  store i32 %18, ptr %3, align 4
  br label %19

19:                                               ; preds = %9, %8
  %20 = load i32, ptr %3, align 4
  ret i32 %20
}