; Function Attrs: nounwind uwtable
define range(i32 0, 2) i32 @OCSP_RESPID_set_by_key(ptr noundef writeonly captures(none) %0, ptr noundef %1) local_unnamed_addr #0 {
  %3 = alloca [20 x i8], align 16
  %4 = icmp eq ptr %1, null
  br i1 %4, label %23, label %5

5:                                                ; preds = %2
  %6 = getelementptr inbounds nuw i8, ptr %1, i64 368
  %7 = load ptr, ptr %6, align 8, !tbaa !54
  %8 = getelementptr inbounds nuw i8, ptr %1, i64 376
  %9 = load ptr, ptr %8, align 8, !tbaa !74
  call void @llvm.lifetime.start.p0(i64 20, ptr nonnull %3) #6
  %10 = tail call ptr @EVP_MD_fetch(ptr noundef %7, ptr noundef nonnull @.str.1, ptr noundef %9) #6
  %11 = icmp eq ptr %10, null
  br i1 %11, label %OCSP_RESPID_set_by_key_ex.exit, label %12

12:                                               ; preds = %5
  %13 = call i32 @X509_pubkey_digest(ptr noundef nonnull %1, ptr noundef nonnull %10, ptr noundef nonnull %3, ptr noundef null) #6
  %.not.i = icmp eq i32 %13, 0
  br i1 %.not.i, label %22, label %14

14:                                               ; preds = %12
  %15 = call ptr @ASN1_OCTET_STRING_new() #6
  %16 = icmp eq ptr %15, null
  br i1 %16, label %22, label %17

17:                                               ; preds = %14
  %18 = call i32 @ASN1_OCTET_STRING_set(ptr noundef nonnull %15, ptr noundef nonnull %3, i32 noundef 20) #6
  %.not16.i = icmp eq i32 %18, 0
  br i1 %.not16.i, label %19, label %20

19:                                               ; preds = %17
  call void @ASN1_OCTET_STRING_free(ptr noundef nonnull %15) #6
  br label %22

20:                                               ; preds = %17
  store i32 1, ptr %0, align 8, !tbaa !51
  %21 = getelementptr inbounds nuw i8, ptr %0, i64 8
  store ptr %15, ptr %21, align 8, !tbaa !47
  br label %22

22:                                               ; preds = %20, %19, %14, %12
  %.0.i = phi i32 [ 0, %14 ], [ 1, %20 ], [ 0, %19 ], [ 0, %12 ]
  call void @EVP_MD_free(ptr noundef nonnull %10) #6
  br label %OCSP_RESPID_set_by_key_ex.exit

OCSP_RESPID_set_by_key_ex.exit:                   ; preds = %5, %22
  %.013.i = phi i32 [ %.0.i, %22 ], [ 0, %5 ]
  call void @llvm.lifetime.end.p0(i64 20, ptr nonnull %3) #6
  br label %23

23:                                               ; preds = %2, %OCSP_RESPID_set_by_key_ex.exit
  %.0 = phi i32 [ %.013.i, %OCSP_RESPID_set_by_key_ex.exit ], [ 0, %2 ]
  ret i32 %.0
}